target datalayout = "e-m:e-p270:32:32-p271:32:32-p272:64:64-i64:64-i128:128-f80:128-n8:16:32:64-S128"
target triple = "x86_64-pc-linux-gnu"

%"class.OopStorage::AllocationList" = type { ptr, ptr }
%class.OopStorage = type <{ ptr, ptr, %"class.OopStorage::AllocationList", ptr, ptr, ptr, ptr, i64, %class.SingleWriterSynchronizer, i32, i8, i8, [2 x i8] }>
%class.SingleWriterSynchronizer = type { i32, [2 x i32], i32, %class.Semaphore }
%class.Semaphore = type { %class.PosixSemaphore }
%class.PosixSemaphore = type { %union.sem_t }
%union.sem_t = type { i64, [24 x i8] }

@_ZN10OopStorage5BlockC1EPKS_Pv = hidden unnamed_addr alias void (ptr, ptr, ptr), ptr @_ZN10OopStorage5BlockC2EPKS_Pv

; Function Attrs: mustprogress nounwind uwtable
define linkonce_odr hidden noundef i64 @_Z10align_downImjTnNSt9enable_ifIXcvbsr3std11is_integralIT_EE5valueEiE4typeELi0EES1_S1_T0_(i64 noundef %0, i32 noundef %1) #1 comdat {
  %3 = alloca i64, align 8
  %4 = alloca i32, align 4
  %5 = alloca i64, align 8
  store i64 %0, ptr %3, align 8
  store i32 %1, ptr %4, align 4
  %6 = load i64, ptr %3, align 8
  %7 = load i32, ptr %4, align 4
  %8 = call noundef i32 @_ZL14alignment_maskIjTnNSt9enable_ifIXcvbsr3std11is_integralIT_EE5valueEiE4typeELi0EES1_S1_(i32 noundef %7)
  %9 = zext i32 %8 to i64
  %10 = xor i64 %9, -1
  %11 = and i64 %6, %10
  store i64 %11, ptr %5, align 8
  %12 = load i64, ptr %5, align 8
  ret i64 %12
}

; Function Attrs: mustprogress nounwind uwtable
define linkonce_odr hidden noundef i64 @_Z12checked_castImmET_T0_(i64 noundef %0) #1 comdat {
  %2 = alloca i64, align 8
  %3 = alloca i64, align 8
  store i64 %0, ptr %2, align 8
  %4 = load i64, ptr %2, align 8
  store i64 %4, ptr %3, align 8
  %5 = load i64, ptr %3, align 8
  ret i64 %5
}

; Function Attrs: mustprogress nounwind uwtable
define internal noundef i32 @_ZL14alignment_maskIjTnNSt9enable_ifIXcvbsr3std11is_integralIT_EE5valueEiE4typeELi0EES1_S1_(i32 noundef %0) #1 {
  %2 = alloca i32, align 4
  store i32 %0, ptr %2, align 4
  %3 = load i32, ptr %2, align 4
  %4 = sub i32 %3, 1
  ret i32 %4
}

; Function Attrs: mustprogress nounwind uwtable
define linkonce_odr hidden noundef i64 @_Z8align_upImjTnNSt9enable_ifIXcvbsr3std11is_integralIT_EE5valueEiE4typeELi0EES1_S1_T0_(i64 noundef %0, i32 noundef %1) #1 comdat {
  %3 = alloca i64, align 8
  %4 = alloca i32, align 4
  %5 = alloca i64, align 8
  store i64 %0, ptr %3, align 8
  store i32 %1, ptr %4, align 4
  %6 = load i64, ptr %3, align 8
  %7 = load i32, ptr %4, align 4
  %8 = call noundef i32 @_ZL14alignment_maskIjTnNSt9enable_ifIXcvbsr3std11is_integralIT_EE5valueEiE4typeELi0EES1_S1_(i32 noundef %7)
  %9 = zext i32 %8 to i64
  %10 = add i64 %6, %9
  %11 = call noundef i64 @_Z12checked_castImmET_T0_(i64 noundef %10)
  store i64 %11, ptr %5, align 8
  %12 = load i64, ptr %5, align 8
  %13 = load i32, ptr %4, align 4
  %14 = call noundef i64 @_Z10align_downImjTnNSt9enable_ifIXcvbsr3std11is_integralIT_EE5valueEiE4typeELi0EES1_S1_T0_(i64 noundef %12, i32 noundef %13)
  ret i64 %14
}

; Function Attrs: mustprogress nounwind uwtable
define linkonce_odr hidden noundef ptr @_Z8align_upIvjEPT_S1_T0_(ptr noundef %0, i32 noundef %1) #1 comdat {
  %3 = alloca ptr, align 8
  %4 = alloca i32, align 4
  store ptr %0, ptr %3, align 8
  store i32 %1, ptr %4, align 4
  %5 = load ptr, ptr %3, align 8
  %6 = ptrtoint ptr %5 to i64
  %7 = load i32, ptr %4, align 4
  %8 = call noundef i64 @_Z8align_upImjTnNSt9enable_ifIXcvbsr3std11is_integralIT_EE5valueEiE4typeELi0EES1_S1_T0_(i64 noundef %6, i32 noundef %7)
  %9 = inttoptr i64 %8 to ptr
  ret ptr %9
}

; Function Attrs: mustprogress nounwind uwtable
define hidden noundef zeroext i8 @_ZNK10OopStorage8memflagsEv(ptr noundef nonnull align 8 dereferenceable(126) %0) #1 align 2 {
  %2 = alloca ptr, align 8
  store ptr %0, ptr %2, align 8
  %3 = load ptr, ptr %2, align 8
  %4 = getelementptr inbounds %class.OopStorage, ptr %3, i32 0, i32 10
  %5 = load i8, ptr %4, align 4
  ret i8 %5
}

; Function Attrs: mustprogress nounwind uwtable
define hidden noundef i64 @_ZN10OopStorage5Block15allocation_sizeEv() #1 align 2 {
  ret i64 632
}

; Function Attrs: mustprogress nounwind uwtable
define hidden noundef ptr @_ZN10OopStorage5Block9new_blockEPKS_(ptr noundef %0) #1 align 2 {
  %2 = alloca ptr, align 8
  %3 = alloca ptr, align 8
  %4 = alloca i64, align 8
  %5 = alloca ptr, align 8
  %6 = alloca ptr, align 8
  store ptr %0, ptr %3, align 8
  %7 = call noundef i64 @_ZN10OopStorage5Block15allocation_sizeEv()
  store i64 %7, ptr %4, align 8
  %8 = load i64, ptr %4, align 8
  %9 = mul i64 %8, 1
  %10 = load ptr, ptr %3, align 8
  %11 = call noundef zeroext i8 @_ZNK10OopStorage8memflagsEv(ptr noundef nonnull align 8 dereferenceable(126) %10)
  %12 = call noundef ptr @_Z12AllocateHeapm8MEMFLAGSN17AllocFailStrategy13AllocFailEnumE(i64 noundef %9, i8 noundef zeroext %11, i32 noundef 1)
  store ptr %12, ptr %5, align 8
  %13 = load ptr, ptr %5, align 8
  %14 = icmp eq ptr %13, null
  br i1 %14, label %15, label %16

15:                                               ; preds = %1
  store ptr null, ptr %2, align 8
  br label %22

16:                                               ; preds = %1
  %17 = load ptr, ptr %5, align 8
  %18 = call noundef ptr @_Z8align_upIvjEPT_S1_T0_(ptr noundef %17, i32 noundef 64)
  store ptr %18, ptr %6, align 8
  %19 = load ptr, ptr %6, align 8
  %20 = load ptr, ptr %3, align 8
  %21 = load ptr, ptr %5, align 8
  call void @_ZN10OopStorage5BlockC1EPKS_Pv(ptr noundef nonnull align 8 dereferenceable(576) %19, ptr noundef %20, ptr noundef %21)
  store ptr %19, ptr %2, align 8
  br label %22

22:                                               ; preds = %16, %15
  %23 = load ptr, ptr %2, align 8
  ret ptr %23
}