; Function Attrs: mustprogress nounwind uwtable
define hidden noundef ptr @_ZN10OopStorage5Block9new_blockEPKS_(ptr noundef %0) local_unnamed_addr #5 align 2 {
  %2 = getelementptr inbounds i8, ptr %0, i64 124
  %3 = load i8, ptr %2, align 4
  %4 = tail call noundef ptr @_Z12AllocateHeapm8MEMFLAGSN17AllocFailStrategy13AllocFailEnumE(i64 noundef 632, i8 noundef zeroext %3, i32 noundef 1) #21
  %5 = icmp eq ptr %4, null
  br i1 %5, label %18, label %6

6:                                                ; preds = %1
  %7 = ptrtoint ptr %4 to i64
  %8 = add i64 %7, 63
  %9 = and i64 %8, -64
  %10 = inttoptr i64 %9 to ptr
  tail call void @llvm.memset.p0.i64(ptr noundef nonnull align 64 dereferenceable(512) %10, i8 0, i64 512, i1 false)
  %11 = getelementptr inbounds i8, ptr %10, i64 512
  store volatile i64 0, ptr %11, align 64
  %12 = getelementptr inbounds i8, ptr %10, i64 520
  %13 = ptrtoint ptr %0 to i64
  store i64 %13, ptr %12, align 8
  %14 = getelementptr inbounds i8, ptr %10, i64 528
  store ptr %4, ptr %14, align 16
  %15 = getelementptr inbounds i8, ptr %10, i64 536
  %16 = getelementptr inbounds i8, ptr %10, i64 560
  tail call void @llvm.memset.p0.i64(ptr noundef nonnull align 8 dereferenceable(24) %15, i8 0, i64 24, i1 false)
  store volatile ptr null, ptr %16, align 16
  %17 = getelementptr inbounds i8, ptr %10, i64 568
  store volatile i64 0, ptr %17, align 8
  br label %18

18:                                               ; preds = %1, %6
  %.0 = phi ptr [ %10, %6 ], [ null, %1 ]
  ret ptr %.0
}